; Function Attrs: nounwind uwtable
define void @statevec_controlledRotateAroundAxisConj(ptr noundef readonly byval(%struct.Qureg) align 8 captures(none) %0, i32 noundef %1, i32 noundef %2, double noundef %3, ptr noundef readonly byval(%struct.Vector) align 8 captures(none) %4) local_unnamed_addr #11 {
  %.sroa.04.0.copyload = load double, ptr %4, align 8
  %.sroa.45.0..sroa_idx = getelementptr inbounds nuw i8, ptr %4, i64 8
  %.sroa.45.0.copyload = load double, ptr %.sroa.45.0..sroa_idx, align 8
  %.sroa.5.0..sroa_idx = getelementptr inbounds nuw i8, ptr %4, i64 16
  %.sroa.5.0.copyload = load double, ptr %.sroa.5.0..sroa_idx, align 8
  %6 = fmul double %.sroa.45.0.copyload, %.sroa.45.0.copyload
  %7 = tail call double @llvm.fmuladd.f64(double %.sroa.04.0.copyload, double %.sroa.04.0.copyload, double %6)
  %8 = tail call double @llvm.fmuladd.f64(double %.sroa.5.0.copyload, double %.sroa.5.0.copyload, double %7)
  %sqrt.i.i.i = tail call double @llvm.sqrt.f64(double %8)
  %9 = fdiv double %.sroa.04.0.copyload, %sqrt.i.i.i
  %10 = fdiv double %.sroa.45.0.copyload, %sqrt.i.i.i
  %11 = fdiv double %.sroa.5.0.copyload, %sqrt.i.i.i
  %12 = fmul double %3, 5.000000e-01
  %13 = tail call double @cos(double noundef %12) #22, !tbaa !4
  %14 = tail call double @sin(double noundef %12) #22, !tbaa !4
  %15 = tail call double @sin(double noundef %12) #22, !tbaa !4
  %16 = fmul double %15, %10
  %17 = tail call double @sin(double noundef %12) #22, !tbaa !4
  %18 = fmul double %14, %11
  %19 = fmul double %9, %17
  tail call void @statevec_controlledCompactUnitary(ptr noundef nonnull byval(%struct.Qureg) align 8 %0, i32 noundef %1, i32 noundef %2, double %13, double %18, double %16, double %19) #22
  ret void
}